target datalayout = "e-m:e-p270:32:32-p271:32:32-p272:64:64-i64:64-i128:128-f80:128-n8:16:32:64-S128"
target triple = "x86_64-pc-linux-gnu"

%struct.slice_buffer_s = type { ptr, ptr, i32, i32, i32, i32, ptr }
%struct.SnowContext = type { ptr, ptr, %struct.RangeCoder, %struct.HpelDSPContext, %struct.VideoDSPContext, %struct.H264QpelContext, %struct.SnowDWTContext, ptr, ptr, [8 x ptr], ptr, [32 x i8], [4224 x i8], i32, i32, i32, i32, i32, i32, i32, i32, i32, i32, i32, [8 x ptr], [8 x ptr], ptr, ptr, ptr, ptr, ptr, i32, i32, i32, i32, i32, i32, i32, i32, i32, i32, i32, i32, i32, i32, i32, [4 x %struct.Plane], ptr, %struct.slice_buffer_s, ptr, ptr, ptr, i32, i32 }
%struct.RangeCoder = type { i32, i32, i32, i32, [256 x i8], [256 x i8], ptr, ptr, ptr, i32 }
%struct.HpelDSPContext = type { [4 x [4 x ptr]], [4 x [4 x ptr]], [4 x [4 x ptr]], [4 x ptr] }
%struct.VideoDSPContext = type { ptr, ptr }
%struct.H264QpelContext = type { [4 x [16 x ptr]], [4 x [16 x ptr]] }
%struct.SnowDWTContext = type { ptr, ptr, ptr }
%struct.Plane = type { i32, i32, [8 x [4 x %struct.SubBand]], i32, [4 x i8], i32, i32, i32, [4 x i8], i32 }
%struct.SubBand = type { i32, i32, i32, i32, i32, ptr, ptr, i32, i32, i32, ptr, ptr, [519 x [32 x i8]] }

; Function Attrs: cold nounwind optsize uwtable
define void @ff_snow_common_end(ptr noundef %0) #4 {
  %2 = alloca ptr, align 8
  %3 = alloca i32, align 4
  %4 = alloca i32, align 4
  %5 = alloca i32, align 4
  %6 = alloca i32, align 4
  %7 = alloca ptr, align 8
  store ptr %0, ptr %2, align 8, !tbaa !27
  call void @llvm.lifetime.start.p0(i64 4, ptr %3) #6
  call void @llvm.lifetime.start.p0(i64 4, ptr %4) #6
  call void @llvm.lifetime.start.p0(i64 4, ptr %5) #6
  call void @llvm.lifetime.start.p0(i64 4, ptr %6) #6
  %8 = load ptr, ptr %2, align 8, !tbaa !27
  %9 = getelementptr inbounds nuw %struct.SnowContext, ptr %8, i32 0, i32 26
  call void @av_freep(ptr noundef %9)
  %10 = load ptr, ptr %2, align 8, !tbaa !27
  %11 = getelementptr inbounds nuw %struct.SnowContext, ptr %10, i32 0, i32 27
  call void @av_freep(ptr noundef %11)
  %12 = load ptr, ptr %2, align 8, !tbaa !27
  %13 = getelementptr inbounds nuw %struct.SnowContext, ptr %12, i32 0, i32 28
  call void @av_freep(ptr noundef %13)
  %14 = load ptr, ptr %2, align 8, !tbaa !27
  %15 = getelementptr inbounds nuw %struct.SnowContext, ptr %14, i32 0, i32 29
  call void @av_freep(ptr noundef %15)
  %16 = load ptr, ptr %2, align 8, !tbaa !27
  %17 = getelementptr inbounds nuw %struct.SnowContext, ptr %16, i32 0, i32 30
  call void @av_freep(ptr noundef %17)
  %18 = load ptr, ptr %2, align 8, !tbaa !27
  %19 = getelementptr inbounds nuw %struct.SnowContext, ptr %18, i32 0, i32 47
  call void @av_freep(ptr noundef %19)
  %20 = load ptr, ptr %2, align 8, !tbaa !27
  %21 = getelementptr inbounds nuw %struct.SnowContext, ptr %20, i32 0, i32 49
  call void @av_freep(ptr noundef %21)
  %22 = load ptr, ptr %2, align 8, !tbaa !27
  %23 = getelementptr inbounds nuw %struct.SnowContext, ptr %22, i32 0, i32 50
  call void @av_freep(ptr noundef %23)
  store i32 0, ptr %6, align 4, !tbaa !9
  br label %24

24:                                               ; preds = %33, %1
  %25 = load i32, ptr %6, align 4, !tbaa !9
  %26 = icmp slt i32 %25, 8
  br i1 %26, label %27, label %36

27:                                               ; preds = %24
  %28 = load ptr, ptr %2, align 8, !tbaa !27
  %29 = getelementptr inbounds nuw %struct.SnowContext, ptr %28, i32 0, i32 9
  %30 = load i32, ptr %6, align 4, !tbaa !9
  %31 = sext i32 %30 to i64
  %32 = getelementptr inbounds [8 x ptr], ptr %29, i64 0, i64 %31
  call void @av_frame_free(ptr noundef %32)
  br label %33

33:                                               ; preds = %27
  %34 = load i32, ptr %6, align 4, !tbaa !9
  %35 = add nsw i32 %34, 1
  store i32 %35, ptr %6, align 4, !tbaa !9
  br label %24, !llvm.loop !144

36:                                               ; preds = %24
  store i32 0, ptr %3, align 4, !tbaa !9
  br label %37

37:                                               ; preds = %74, %36
  %38 = load i32, ptr %3, align 4, !tbaa !9
  %39 = icmp slt i32 %38, 4
  br i1 %39, label %40, label %77

40:                                               ; preds = %37
  store i32 7, ptr %4, align 4, !tbaa !9
  br label %41

41:                                               ; preds = %70, %40
  %42 = load i32, ptr %4, align 4, !tbaa !9
  %43 = icmp sge i32 %42, 0
  br i1 %43, label %44, label %73

44:                                               ; preds = %41
  %45 = load i32, ptr %4, align 4, !tbaa !9
  %46 = icmp ne i32 %45, 0
  %47 = select i1 %46, i32 1, i32 0
  store i32 %47, ptr %5, align 4, !tbaa !9
  br label %48

48:                                               ; preds = %66, %44
  %49 = load i32, ptr %5, align 4, !tbaa !9
  %50 = icmp slt i32 %49, 4
  br i1 %50, label %51, label %69

51:                                               ; preds = %48
  call void @llvm.lifetime.start.p0(i64 8, ptr %7) #6
  %52 = load ptr, ptr %2, align 8, !tbaa !27
  %53 = getelementptr inbounds nuw %struct.SnowContext, ptr %52, i32 0, i32 46
  %54 = load i32, ptr %3, align 4, !tbaa !9
  %55 = sext i32 %54 to i64
  %56 = getelementptr inbounds [4 x %struct.Plane], ptr %53, i64 0, i64 %55
  %57 = getelementptr inbounds nuw %struct.Plane, ptr %56, i32 0, i32 2
  %58 = load i32, ptr %4, align 4, !tbaa !9
  %59 = sext i32 %58 to i64
  %60 = getelementptr inbounds [8 x [4 x %struct.SubBand]], ptr %57, i64 0, i64 %59
  %61 = load i32, ptr %5, align 4, !tbaa !9
  %62 = sext i32 %61 to i64
  %63 = getelementptr inbounds [4 x %struct.SubBand], ptr %60, i64 0, i64 %62
  store ptr %63, ptr %7, align 8, !tbaa !118
  %64 = load ptr, ptr %7, align 8, !tbaa !118
  %65 = getelementptr inbounds nuw %struct.SubBand, ptr %64, i32 0, i32 10
  call void @av_freep(ptr noundef %65)
  call void @llvm.lifetime.end.p0(i64 8, ptr %7) #6
  br label %66

66:                                               ; preds = %51
  %67 = load i32, ptr %5, align 4, !tbaa !9
  %68 = add nsw i32 %67, 1
  store i32 %68, ptr %5, align 4, !tbaa !9
  br label %48, !llvm.loop !145

69:                                               ; preds = %48
  br label %70

70:                                               ; preds = %69
  %71 = load i32, ptr %4, align 4, !tbaa !9
  %72 = add nsw i32 %71, -1
  store i32 %72, ptr %4, align 4, !tbaa !9
  br label %41, !llvm.loop !146

73:                                               ; preds = %41
  br label %74

74:                                               ; preds = %73
  %75 = load i32, ptr %3, align 4, !tbaa !9
  %76 = add nsw i32 %75, 1
  store i32 %76, ptr %3, align 4, !tbaa !9
  br label %37, !llvm.loop !147

77:                                               ; preds = %37
  %78 = load ptr, ptr %2, align 8, !tbaa !27
  %79 = getelementptr inbounds nuw %struct.SnowContext, ptr %78, i32 0, i32 10
  call void @av_frame_free(ptr noundef %79)
  %80 = load ptr, ptr %2, align 8, !tbaa !27
  %81 = getelementptr inbounds nuw %struct.SnowContext, ptr %80, i32 0, i32 8
  call void @av_frame_free(ptr noundef %81)
  call void @llvm.lifetime.end.p0(i64 4, ptr %6) #6
  call void @llvm.lifetime.end.p0(i64 4, ptr %5) #6
  call void @llvm.lifetime.end.p0(i64 4, ptr %4) #6
  call void @llvm.lifetime.end.p0(i64 4, ptr %3) #6
  ret void
}