; Function Attrs: cold nounwind optsize uwtable
define void @ff_snow_common_end(ptr noundef %0) local_unnamed_addr #6 {
  %2 = getelementptr inbounds nuw i8, ptr %0, i64 6576
  tail call void @av_freep(ptr noundef nonnull %2) #10
  %3 = getelementptr inbounds nuw i8, ptr %0, i64 6584
  tail call void @av_freep(ptr noundef nonnull %3) #10
  %4 = getelementptr inbounds nuw i8, ptr %0, i64 6592
  tail call void @av_freep(ptr noundef nonnull %4) #10
  %5 = getelementptr inbounds nuw i8, ptr %0, i64 6600
  tail call void @av_freep(ptr noundef nonnull %5) #10
  %6 = getelementptr inbounds nuw i8, ptr %0, i64 6608
  tail call void @av_freep(ptr noundef nonnull %6) #10
  %7 = getelementptr inbounds nuw i8, ptr %0, i64 2141880
  tail call void @av_freep(ptr noundef nonnull %7) #10
  %8 = getelementptr inbounds nuw i8, ptr %0, i64 2141928
  tail call void @av_freep(ptr noundef nonnull %8) #10
  %9 = getelementptr inbounds nuw i8, ptr %0, i64 2141936
  tail call void @av_freep(ptr noundef nonnull %9) #10
  %10 = getelementptr inbounds nuw i8, ptr %0, i64 2072
  br label %11

.preheader32:                                     ; preds = %11
  %invariant.gep = getelementptr i8, ptr %0, i64 6744
  br label %.preheader

11:                                               ; preds = %1, %11
  %indvars.iv = phi i64 [ 0, %1 ], [ %indvars.iv.next, %11 ]
  %12 = getelementptr inbounds nuw [8 x ptr], ptr %10, i64 0, i64 %indvars.iv
  tail call void @av_frame_free(ptr noundef nonnull %12) #10
  %indvars.iv.next = add nuw nsw i64 %indvars.iv, 1
  %exitcond.not = icmp eq i64 %indvars.iv.next, 8
  br i1 %exitcond.not, label %.preheader32, label %11, !llvm.loop !132

.preheader:                                       ; preds = %.preheader32, %21
  %indvars.iv46 = phi i64 [ 0, %.preheader32 ], [ %indvars.iv.next47, %21 ]
  %13 = mul nuw nsw i64 %indvars.iv46, 533800
  %gep = getelementptr i8, ptr %invariant.gep, i64 %13
  br label %14

14:                                               ; preds = %.preheader, %20
  %indvars.iv43 = phi i64 [ 7, %.preheader ], [ %indvars.iv.next44, %20 ]
  %.not = icmp ne i64 %indvars.iv43, 0
  %.idx = mul nuw nsw i64 %indvars.iv43, 66720
  %15 = getelementptr i8, ptr %gep, i64 %.idx
  %16 = zext i1 %.not to i64
  br label %17

17:                                               ; preds = %14, %17
  %indvars.iv38 = phi i64 [ %16, %14 ], [ %indvars.iv.next39, %17 ]
  %18 = mul nuw nsw i64 %indvars.iv38, 16680
  %19 = getelementptr i8, ptr %15, i64 %18
  tail call void @av_freep(ptr noundef %19) #10
  %indvars.iv.next39 = add nuw nsw i64 %indvars.iv38, 1
  %exitcond42.not = icmp eq i64 %indvars.iv.next39, 4
  br i1 %exitcond42.not, label %20, label %17, !llvm.loop !133

20:                                               ; preds = %17
  %indvars.iv.next44 = add nsw i64 %indvars.iv43, -1
  %.not51 = icmp eq i64 %indvars.iv43, 0
  br i1 %.not51, label %21, label %14, !llvm.loop !134

21:                                               ; preds = %20
  %indvars.iv.next47 = add nuw nsw i64 %indvars.iv46, 1
  %exitcond50.not = icmp eq i64 %indvars.iv.next47, 4
  br i1 %exitcond50.not, label %22, label %.preheader, !llvm.loop !135

22:                                               ; preds = %21
  %23 = getelementptr inbounds nuw i8, ptr %0, i64 2136
  tail call void @av_frame_free(ptr noundef nonnull %23) #10
  %24 = getelementptr inbounds nuw i8, ptr %0, i64 2064
  tail call void @av_frame_free(ptr noundef nonnull %24) #10
  ret void
}